; Function Attrs: inlinehint mustprogress nounwind optsize uwtable
define internal void @"_ZZN8nanobind6detail11func_createILb0ELb1EZL32nanobind_init_test_functions_extRNS_7module_EE3$_5iJETpTnmJEJNS_5scopeENS_4nameEEEEP7_objectOT1_PFT2_DpT3_ESt16integer_sequenceImJXspT4_EEEDpRKT5_ENUlPvE_8__invokeESM_"(ptr noundef readonly captures(none) %0) #17 align 2 {
  %.val = load ptr, ptr %0, align 8, !tbaa !35
  %2 = icmp eq ptr %.val, null
  br i1 %2, label %"_ZZN8nanobind6detail11func_createILb0ELb1EZL32nanobind_init_test_functions_extRNS_7module_EE3$_5iJETpTnmJEJNS_5scopeENS_4nameEEEEP7_objectOT1_PFT2_DpT3_ESt16integer_sequenceImJXspT4_EEEDpRKT5_ENKUlPvE_clESM_.exit", label %3

3:                                                ; preds = %1
  tail call void @_ZdlPvm(ptr noundef nonnull %.val, i64 noundef 40) #29
  br label %"_ZZN8nanobind6detail11func_createILb0ELb1EZL32nanobind_init_test_functions_extRNS_7module_EE3$_5iJETpTnmJEJNS_5scopeENS_4nameEEEEP7_objectOT1_PFT2_DpT3_ESt16integer_sequenceImJXspT4_EEEDpRKT5_ENKUlPvE_clESM_.exit"

"_ZZN8nanobind6detail11func_createILb0ELb1EZL32nanobind_init_test_functions_extRNS_7module_EE3$_5iJETpTnmJEJNS_5scopeENS_4nameEEEEP7_objectOT1_PFT2_DpT3_ESt16integer_sequenceImJXspT4_EEEDpRKT5_ENKUlPvE_clESM_.exit": ; preds = %1, %3
  ret void
}